; Function Attrs: mustprogress uwtable
define noundef signext i8 @_ZNK6icu_7513OlsonTimeZone14inDaylightTimeEdR10UErrorCode(ptr noundef nonnull align 8 dereferenceable(224) %this, double noundef %date, ptr noundef nonnull align 4 dereferenceable(4) %ec) unnamed_addr #2 align 2 {
entry:
  %raw = alloca i32, align 4
  %dst = alloca i32, align 4
  %vtable = load ptr, ptr %this, align 8
  %vfn = getelementptr inbounds i8, ptr %vtable, i64 48
  %0 = load ptr, ptr %vfn, align 8
  call void %0(ptr noundef nonnull align 8 dereferenceable(224) %this, double noundef %date, i8 noundef signext 0, ptr noundef nonnull align 4 dereferenceable(4) %raw, ptr noundef nonnull align 4 dereferenceable(4) %dst, ptr noundef nonnull align 4 dereferenceable(4) %ec)
  %1 = load i32, ptr %dst, align 4
  %cmp = icmp ne i32 %1, 0
  %conv = zext i1 %cmp to i8
  ret i8 %conv
}